; Function Attrs: null_pointer_is_valid sspstrong uwtable
define internal i32 @dissect_ipopt_mtu_probe(ptr noundef %0, ptr noundef %1, ptr noundef %2, ptr readnone captures(none) %3) #1 {
  %5 = alloca ptr, align 8
  %6 = load i32, ptr @proto_ip_option_mtu_probe, align 4
  call void @llvm.lifetime.start.p0(i64 8, ptr nonnull %5) #9
  %7 = load i32, ptr @ett_ip_option_mtu, align 4
  %8 = tail call i32 @tvb_reported_length(ptr noundef %0)
  %9 = call fastcc ptr @ip_fixed_option_header(ptr noundef %2, ptr noundef %1, ptr noundef %0, i32 noundef %6, i32 noundef %7, ptr noundef nonnull %5, i32 noundef 4, i32 noundef %8)
  %10 = load i32, ptr @hf_ip_opt_mtu, align 4
  %11 = tail call ptr @proto_tree_add_item(ptr noundef %9, i32 noundef %10, ptr noundef %0, i32 noundef 2, i32 noundef 2, i32 noundef 0)
  %12 = tail call i32 @tvb_captured_length(ptr noundef %0)
  call void @llvm.lifetime.end.p0(i64 8, ptr nonnull %5) #9
  ret i32 %12
}